#include <math.h>
#include <stdio.h>
#include <stdlib.h>
#include <string.h>


int main()
{
	int n;
	scanf("%d",&n);
	if((7+n)%7==0)
	{
		printf("1\n10\n");
	}else if((31+n)%7==0)
	{
		printf("2\n3\n11\n");
	
	}else if((2*31+n)%7==0)
	{
		printf("4\n7\n");
	}else if((2*31+30+n)%7==0)
	{
		printf("5");
	}else if((30+3*31+n)%7==0)
	{
		printf("6");
	}else if((4*31+2*30+n)%7==0)
	{
		printf("8");
	}else if((5*31+2*30+n)%7==0)
	{
		printf("9\n12\n");
	
	}

return 0;
}
