; ModuleID = 'source-C-CXX/49/727.c'
source_filename = "source-C-CXX/49/727.c"
target datalayout = "e-m:e-p270:32:32-p271:32:32-p272:64:64-i64:64-f80:128-n8:16:32:64-S128"
target triple = "x86_64-pc-linux-gnu"

@.str = private unnamed_addr constant [3 x i8] c"%d\00", align 1
@str = private unnamed_addr constant [5 x i8] c"9\0A12\00", align 1
@str.8 = private unnamed_addr constant [4 x i8] c"4\0A7\00", align 1
@str.9 = private unnamed_addr constant [7 x i8] c"2\0A3\0A11\00", align 1
@str.10 = private unnamed_addr constant [5 x i8] c"1\0A10\00", align 1

; Function Attrs: nofree nounwind sspstrong uwtable
define dso_local i32 @main() local_unnamed_addr #0 {
  %1 = alloca i32, align 4
  %2 = bitcast i32* %1 to i8*
  call void @llvm.lifetime.start.p0i8(i64 4, i8* nonnull %2) #4
  %3 = call i32 (i8*, ...) @__isoc99_scanf(i8* getelementptr inbounds ([3 x i8], [3 x i8]* @.str, i64 0, i64 0), i32* nonnull %1)
  %4 = load i32, i32* %1, align 4, !tbaa !5
  %5 = add nsw i32 %4, 7
  %6 = srem i32 %5, 7
  %7 = icmp eq i32 %6, 0
  br i1 %7, label %8, label %10

8:                                                ; preds = %0
  %9 = call i32 @puts(i8* nonnull dereferenceable(1) getelementptr inbounds ([5 x i8], [5 x i8]* @str.10, i64 0, i64 0))
  br label %46

10:                                               ; preds = %0
  %11 = add nsw i32 %4, 31
  %12 = srem i32 %11, 7
  %13 = icmp eq i32 %12, 0
  br i1 %13, label %14, label %16

14:                                               ; preds = %10
  %15 = call i32 @puts(i8* nonnull dereferenceable(1) getelementptr inbounds ([7 x i8], [7 x i8]* @str.9, i64 0, i64 0))
  br label %46

16:                                               ; preds = %10
  %17 = add nsw i32 %4, 62
  %18 = srem i32 %17, 7
  %19 = icmp eq i32 %18, 0
  br i1 %19, label %20, label %22

20:                                               ; preds = %16
  %21 = call i32 @puts(i8* nonnull dereferenceable(1) getelementptr inbounds ([4 x i8], [4 x i8]* @str.8, i64 0, i64 0))
  br label %46

22:                                               ; preds = %16
  %23 = add nsw i32 %4, 92
  %24 = srem i32 %23, 7
  %25 = icmp eq i32 %24, 0
  br i1 %25, label %26, label %28

26:                                               ; preds = %22
  %27 = call i32 @putchar(i32 53)
  br label %46

28:                                               ; preds = %22
  %29 = add nsw i32 %4, 123
  %30 = srem i32 %29, 7
  %31 = icmp eq i32 %30, 0
  br i1 %31, label %32, label %34

32:                                               ; preds = %28
  %33 = call i32 @putchar(i32 54)
  br label %46

34:                                               ; preds = %28
  %35 = add nsw i32 %4, 184
  %36 = srem i32 %35, 7
  %37 = icmp eq i32 %36, 0
  br i1 %37, label %38, label %40

38:                                               ; preds = %34
  %39 = call i32 @putchar(i32 56)
  br label %46

40:                                               ; preds = %34
  %41 = add nsw i32 %4, 215
  %42 = srem i32 %41, 7
  %43 = icmp eq i32 %42, 0
  br i1 %43, label %44, label %46

44:                                               ; preds = %40
  %45 = call i32 @puts(i8* nonnull dereferenceable(1) getelementptr inbounds ([5 x i8], [5 x i8]* @str, i64 0, i64 0))
  br label %46

46:                                               ; preds = %14, %26, %38, %44, %40, %32, %20, %8
  call void @llvm.lifetime.end.p0i8(i64 4, i8* nonnull %2) #4
  ret i32 0
}

; Function Attrs: argmemonly mustprogress nofree nosync nounwind willreturn
declare void @llvm.lifetime.start.p0i8(i64 immarg, i8* nocapture) #1

; Function Attrs: nofree nounwind
declare noundef i32 @__isoc99_scanf(i8* nocapture noundef readonly, ...) local_unnamed_addr #2

; Function Attrs: argmemonly mustprogress nofree nosync nounwind willreturn
declare void @llvm.lifetime.end.p0i8(i64 immarg, i8* nocapture) #1

; Function Attrs: nofree nounwind
declare noundef i32 @puts(i8* nocapture noundef readonly) local_unnamed_addr #3

; Function Attrs: nofree nounwind
declare noundef i32 @putchar(i32 noundef) local_unnamed_addr #3


!llvm.module.flags = !{!0, !1, !2, !3}
!llvm.ident = !{!4}

!0 = !{i32 1, !"wchar_size", i32 4}
!1 = !{i32 7, !"PIC Level", i32 2}
!2 = !{i32 7, !"PIE Level", i32 2}
!3 = !{i32 7, !"uwtable", i32 1}
!4 = !{!"clang version 13.0.0"}
!5 = !{!6, !6, i64 0}
!6 = !{!"int", !7, i64 0}
!7 = !{!"omnipotent char", !8, i64 0}
!8 = !{!"Simple C/C++ TBAA"}
